target datalayout = "e-m:e-p270:32:32-p271:32:32-p272:64:64-i64:64-i128:128-f80:128-n8:16:32:64-S128"
target triple = "x86_64-pc-linux-gnu"

; Function Attrs: mustprogress uwtable
define noundef zeroext i1 @_ZN18DecorateBasePlugin13startDecorateEPK7QActionR12MeshDocumentPK17RichParameterListP6GLArea(ptr noundef nonnull align 8 dereferenceable(192) %0, ptr noundef %1, ptr noundef nonnull align 8 dereferenceable(192) %2, ptr noundef %3, ptr noundef %4) unnamed_addr #5 align 2 {
  %6 = alloca i1, align 1
  %7 = alloca ptr, align 8
  %8 = alloca ptr, align 8
  %9 = alloca ptr, align 8
  %10 = alloca ptr, align 8
  %11 = alloca ptr, align 8
  store ptr %0, ptr %7, align 8
  store ptr %1, ptr %8, align 8
  store ptr %2, ptr %9, align 8
  store ptr %3, ptr %10, align 8
  store ptr %4, ptr %11, align 8
  %12 = load ptr, ptr %7, align 8
  %13 = getelementptr inbounds i8, ptr %12, i64 16
  %14 = load ptr, ptr %8, align 8
  %15 = load ptr, ptr %13, align 8
  %16 = getelementptr inbounds ptr, ptr %15, i64 18
  %17 = load ptr, ptr %16, align 8
  %18 = call noundef i32 %17(ptr noundef nonnull align 8 dereferenceable(32) %13, ptr noundef %14)
  switch i32 %18, label %22 [
    i32 0, label %19
    i32 3, label %19
    i32 2, label %20
  ]

19:                                               ; preds = %5, %5
  store i1 true, ptr %6, align 1
  br label %23

20:                                               ; preds = %5
  %21 = call noundef zeroext i1 @_ZN19GLExtensionsManager34initializeGLextensions_notThrowingEv()
  store i1 %21, ptr %6, align 1
  br label %23

22:                                               ; preds = %5
  store i1 true, ptr %6, align 1
  br label %23

23:                                               ; preds = %22, %20, %19
  %24 = load i1, ptr %6, align 1
  ret i1 %24
}

; Function Attrs: uwtable
define noundef zeroext i1 @_ZThn16_N18DecorateBasePlugin13startDecorateEPK7QActionR12MeshDocumentPK17RichParameterListP6GLArea(ptr noundef %0, ptr noundef %1, ptr noundef nonnull align 8 dereferenceable(192) %2, ptr noundef %3, ptr noundef %4) unnamed_addr #0 align 2 {
  %6 = alloca ptr, align 8
  %7 = alloca ptr, align 8
  %8 = alloca ptr, align 8
  %9 = alloca ptr, align 8
  %10 = alloca ptr, align 8
  store ptr %0, ptr %6, align 8
  store ptr %1, ptr %7, align 8
  store ptr %2, ptr %8, align 8
  store ptr %3, ptr %9, align 8
  store ptr %4, ptr %10, align 8
  %11 = load ptr, ptr %6, align 8
  %12 = getelementptr inbounds i8, ptr %11, i64 -16
  %13 = load ptr, ptr %7, align 8
  %14 = load ptr, ptr %8, align 8
  %15 = load ptr, ptr %9, align 8
  %16 = load ptr, ptr %10, align 8
  %17 = tail call noundef zeroext i1 @_ZN18DecorateBasePlugin13startDecorateEPK7QActionR12MeshDocumentPK17RichParameterListP6GLArea(ptr noundef nonnull align 8 dereferenceable(192) %12, ptr noundef %13, ptr noundef nonnull align 8 dereferenceable(192) %14, ptr noundef %15, ptr noundef %16)
  ret i1 %17
}