; Function Attrs: uwtable
define noundef zeroext i1 @_ZThn16_N18DecorateBasePlugin13startDecorateEPK7QActionR12MeshDocumentPK17RichParameterListP6GLArea(ptr noundef %0, ptr noundef %1, ptr nocapture noundef nonnull readnone align 8 dereferenceable(192) %2, ptr nocapture noundef readnone %3, ptr nocapture noundef readnone %4) unnamed_addr #11 align 2 {
  %6 = load ptr, ptr %0, align 8
  %7 = getelementptr inbounds i8, ptr %6, i64 144
  %8 = load ptr, ptr %7, align 8
  %9 = tail call noundef i32 %8(ptr noundef nonnull align 8 dereferenceable(32) %0, ptr noundef %1)
  %cond.i = icmp eq i32 %9, 2
  br i1 %cond.i, label %10, label %_ZN18DecorateBasePlugin13startDecorateEPK7QActionR12MeshDocumentPK17RichParameterListP6GLArea.exit

10:                                               ; preds = %5
  %11 = tail call noundef zeroext i1 @_ZN19GLExtensionsManager34initializeGLextensions_notThrowingEv()
  br label %_ZN18DecorateBasePlugin13startDecorateEPK7QActionR12MeshDocumentPK17RichParameterListP6GLArea.exit

_ZN18DecorateBasePlugin13startDecorateEPK7QActionR12MeshDocumentPK17RichParameterListP6GLArea.exit: ; preds = %5, %10
  %.0.i = phi i1 [ %11, %10 ], [ true, %5 ]
  ret i1 %.0.i
}